target datalayout = "e-m:e-p270:32:32-p271:32:32-p272:64:64-i64:64-i128:128-f80:128-n8:16:32:64-S128"
target triple = "x86_64-unknown-linux-gnu"

%"class.llvh::sys::path::const_iterator" = type <{ %"class.llvh::StringRef", %"class.llvh::StringRef", i64, i32, [4 x i8] }>
%"class.llvh::StringRef" = type { ptr, i64 }
%"class.llvh::Twine" = type <{ %"union.llvh::Twine::Child", %"union.llvh::Twine::Child", i8, i8, [6 x i8] }>
%"union.llvh::Twine::Child" = type { ptr }

@.str.3 = private unnamed_addr constant [1 x i8] zeroinitializer, align 1

; Function Attrs: mustprogress nounwind uwtable
define linkonce_odr hidden noundef ptr @_ZNK4llvh9StringRef5beginEv(ptr noundef nonnull align 8 dereferenceable(16) %this) #0 comdat align 2 {
entry:
  %this.addr = alloca ptr, align 8
  store ptr %this, ptr %this.addr, align 8
  %this1 = load ptr, ptr %this.addr, align 8
  %Data = getelementptr inbounds %"class.llvh::StringRef", ptr %this1, i32 0, i32 0
  %0 = load ptr, ptr %Data, align 8
  ret ptr %0
}

; Function Attrs: mustprogress nounwind uwtable
define hidden noundef zeroext i1 @_ZNK4llvh3sys4path14const_iteratoreqERKS2_(ptr noundef nonnull align 8 dereferenceable(44) %this, ptr noundef nonnull align 8 dereferenceable(44) %RHS) #0 align 2 {
entry:
  %this.addr = alloca ptr, align 8
  %RHS.addr = alloca ptr, align 8
  store ptr %this, ptr %this.addr, align 8
  store ptr %RHS, ptr %RHS.addr, align 8
  %this1 = load ptr, ptr %this.addr, align 8
  %Path = getelementptr inbounds %"class.llvh::sys::path::const_iterator", ptr %this1, i32 0, i32 0
  %call = call noundef ptr @_ZNK4llvh9StringRef5beginEv(ptr noundef nonnull align 8 dereferenceable(16) %Path)
  %0 = load ptr, ptr %RHS.addr, align 8
  %Path2 = getelementptr inbounds %"class.llvh::sys::path::const_iterator", ptr %0, i32 0, i32 0
  %call3 = call noundef ptr @_ZNK4llvh9StringRef5beginEv(ptr noundef nonnull align 8 dereferenceable(16) %Path2)
  %cmp = icmp eq ptr %call, %call3
  br i1 %cmp, label %land.rhs, label %land.end

land.rhs:                                         ; preds = %entry
  %Position = getelementptr inbounds %"class.llvh::sys::path::const_iterator", ptr %this1, i32 0, i32 2
  %1 = load i64, ptr %Position, align 8
  %2 = load ptr, ptr %RHS.addr, align 8
  %Position4 = getelementptr inbounds %"class.llvh::sys::path::const_iterator", ptr %2, i32 0, i32 2
  %3 = load i64, ptr %Position4, align 8
  %cmp5 = icmp eq i64 %1, %3
  br label %land.end

land.end:                                         ; preds = %land.rhs, %entry
  %4 = phi i1 [ false, %entry ], [ %cmp5, %land.rhs ]
  ret i1 %4
}

; Function Attrs: mustprogress nounwind uwtable
define linkonce_odr hidden void @_ZN4llvh5TwineC2EPKc(ptr noundef nonnull align 8 dereferenceable(18) %this, ptr noundef %Str) unnamed_addr #0 comdat align 2 {
entry:
  %this.addr = alloca ptr, align 8
  %Str.addr = alloca ptr, align 8
  store ptr %this, ptr %this.addr, align 8
  store ptr %Str, ptr %Str.addr, align 8
  %this1 = load ptr, ptr %this.addr, align 8
  %LHSKind = getelementptr inbounds %"class.llvh::Twine", ptr %this1, i32 0, i32 2
  store i8 1, ptr %LHSKind, align 8
  %RHSKind = getelementptr inbounds %"class.llvh::Twine", ptr %this1, i32 0, i32 3
  store i8 1, ptr %RHSKind, align 1
  %0 = load ptr, ptr %Str.addr, align 8
  %arrayidx = getelementptr inbounds i8, ptr %0, i64 0
  %1 = load i8, ptr %arrayidx, align 1
  %conv = sext i8 %1 to i32
  %cmp = icmp ne i32 %conv, 0
  br i1 %cmp, label %if.then, label %if.else

if.then:                                          ; preds = %entry
  %2 = load ptr, ptr %Str.addr, align 8
  %LHS2 = getelementptr inbounds %"class.llvh::Twine", ptr %this1, i32 0, i32 0
  store ptr %2, ptr %LHS2, align 8
  %LHSKind3 = getelementptr inbounds %"class.llvh::Twine", ptr %this1, i32 0, i32 2
  store i8 3, ptr %LHSKind3, align 8
  br label %if.end

if.else:                                          ; preds = %entry
  %LHSKind4 = getelementptr inbounds %"class.llvh::Twine", ptr %this1, i32 0, i32 2
  store i8 1, ptr %LHSKind4, align 8
  br label %if.end

if.end:                                           ; preds = %if.else, %if.then
  ret void
}

; Function Attrs: mustprogress nounwind uwtable
define linkonce_odr hidden void @_ZN4llvh5TwineC2ERKNS_9StringRefE(ptr noundef nonnull align 8 dereferenceable(18) %this, ptr noundef nonnull align 8 dereferenceable(16) %Str) unnamed_addr #0 comdat align 2 {
entry:
  %this.addr = alloca ptr, align 8
  %Str.addr = alloca ptr, align 8
  store ptr %this, ptr %this.addr, align 8
  store ptr %Str, ptr %Str.addr, align 8
  %this1 = load ptr, ptr %this.addr, align 8
  %LHSKind = getelementptr inbounds %"class.llvh::Twine", ptr %this1, i32 0, i32 2
  store i8 5, ptr %LHSKind, align 8
  %RHSKind = getelementptr inbounds %"class.llvh::Twine", ptr %this1, i32 0, i32 3
  store i8 1, ptr %RHSKind, align 1
  %0 = load ptr, ptr %Str.addr, align 8
  %LHS2 = getelementptr inbounds %"class.llvh::Twine", ptr %this1, i32 0, i32 0
  store ptr %0, ptr %LHS2, align 8
  ret void
}

; Function Attrs: mustprogress nounwind uwtable
define linkonce_odr hidden noundef nonnull align 8 dereferenceable(16) ptr @_ZNK4llvh3sys4path14const_iteratordeEv(ptr noundef nonnull align 8 dereferenceable(44) %this) #0 comdat align 2 {
entry:
  %this.addr = alloca ptr, align 8
  store ptr %this, ptr %this.addr, align 8
  %this1 = load ptr, ptr %this.addr, align 8
  %Component = getelementptr inbounds %"class.llvh::sys::path::const_iterator", ptr %this1, i32 0, i32 1
  ret ptr %Component
}

; Function Attrs: mustprogress nounwind uwtable
define linkonce_odr hidden noundef zeroext i1 @_ZNK4llvh20iterator_facade_baseINS_3sys4path14const_iteratorESt18input_iterator_tagKNS_9StringRefElPS6_RS6_EneERKS3_(ptr noundef nonnull align 1 dereferenceable(1) %this, ptr noundef nonnull align 8 dereferenceable(44) %RHS) #0 comdat align 2 {
entry:
  %this.addr = alloca ptr, align 8
  %RHS.addr = alloca ptr, align 8
  store ptr %this, ptr %this.addr, align 8
  store ptr %RHS, ptr %RHS.addr, align 8
  %this1 = load ptr, ptr %this.addr, align 8
  %0 = load ptr, ptr %RHS.addr, align 8
  %call = call noundef zeroext i1 @_ZNK4llvh3sys4path14const_iteratoreqERKS2_(ptr noundef nonnull align 8 dereferenceable(44) %this1, ptr noundef nonnull align 8 dereferenceable(44) %0)
  %lnot = xor i1 %call, true
  ret i1 %lnot
}

; Function Attrs: mustprogress nounwind uwtable
define hidden void @_ZN4llvh3sys4path6appendERNS_15SmallVectorImplIcEENS1_14const_iteratorES5_NS1_5StyleE(ptr noundef nonnull align 8 dereferenceable(16) %path, ptr noundef byval(%"class.llvh::sys::path::const_iterator") align 8 %begin, ptr noundef byval(%"class.llvh::sys::path::const_iterator") align 8 %end, i32 noundef %style) #0 {
entry:
  %path.addr = alloca ptr, align 8
  %style.addr = alloca i32, align 4
  %ref.tmp = alloca %"class.llvh::Twine", align 8
  %ref.tmp2 = alloca %"class.llvh::Twine", align 8
  %ref.tmp3 = alloca %"class.llvh::Twine", align 8
  %ref.tmp4 = alloca %"class.llvh::Twine", align 8
  store ptr %path, ptr %path.addr, align 8
  store i32 %style, ptr %style.addr, align 4
  br label %for.cond

for.cond:                                         ; preds = %for.inc, %entry
  %call = call noundef zeroext i1 @_ZNK4llvh20iterator_facade_baseINS_3sys4path14const_iteratorESt18input_iterator_tagKNS_9StringRefElPS6_RS6_EneERKS3_(ptr noundef nonnull align 1 dereferenceable(1) %begin, ptr noundef nonnull align 8 dereferenceable(44) %end)
  br i1 %call, label %for.body, label %for.end

for.body:                                         ; preds = %for.cond
  %0 = load ptr, ptr %path.addr, align 8
  %1 = load i32, ptr %style.addr, align 4
  %call1 = call noundef nonnull align 8 dereferenceable(16) ptr @_ZNK4llvh3sys4path14const_iteratordeEv(ptr noundef nonnull align 8 dereferenceable(44) %begin)
  call void @_ZN4llvh5TwineC2ERKNS_9StringRefE(ptr noundef nonnull align 8 dereferenceable(18) %ref.tmp, ptr noundef nonnull align 8 dereferenceable(16) %call1)
  call void @_ZN4llvh5TwineC2EPKc(ptr noundef nonnull align 8 dereferenceable(18) %ref.tmp2, ptr noundef @.str.3)
  call void @_ZN4llvh5TwineC2EPKc(ptr noundef nonnull align 8 dereferenceable(18) %ref.tmp3, ptr noundef @.str.3)
  call void @_ZN4llvh5TwineC2EPKc(ptr noundef nonnull align 8 dereferenceable(18) %ref.tmp4, ptr noundef @.str.3)
  call void @_ZN4llvh3sys4path6appendERNS_15SmallVectorImplIcEENS1_5StyleERKNS_5TwineES8_S8_S8_(ptr noundef nonnull align 8 dereferenceable(16) %0, i32 noundef %1, ptr noundef nonnull align 8 dereferenceable(18) %ref.tmp, ptr noundef nonnull align 8 dereferenceable(18) %ref.tmp2, ptr noundef nonnull align 8 dereferenceable(18) %ref.tmp3, ptr noundef nonnull align 8 dereferenceable(18) %ref.tmp4)
  br label %for.inc

for.inc:                                          ; preds = %for.body
  %call5 = call noundef nonnull align 8 dereferenceable(44) ptr @_ZN4llvh3sys4path14const_iteratorppEv(ptr noundef nonnull align 8 dereferenceable(44) %begin)
  br label %for.cond, !llvm.loop !7

for.end:                                          ; preds = %for.cond
  ret void
}