; Function Attrs: mustprogress nounwind uwtable
define hidden void @_ZN4llvh3sys4path6appendERNS_15SmallVectorImplIcEENS1_14const_iteratorES5_NS1_5StyleE(ptr noundef nonnull align 8 dereferenceable(16) %path, ptr noundef byval(%"class.llvh::sys::path::const_iterator") align 8 %begin, ptr nocapture noundef readonly byval(%"class.llvh::sys::path::const_iterator") align 8 %end, i32 noundef %style) local_unnamed_addr #0 {
entry:
  %ref.tmp = alloca %"class.llvh::Twine", align 8
  %ref.tmp2 = alloca %"class.llvh::Twine", align 8
  %ref.tmp3 = alloca %"class.llvh::Twine", align 8
  %ref.tmp4 = alloca %"class.llvh::Twine", align 8
  %0 = load ptr, ptr %end, align 8
  %Position.i.i = getelementptr inbounds i8, ptr %begin, i64 32
  %Position4.i.i = getelementptr inbounds i8, ptr %end, i64 32
  %1 = load i64, ptr %Position4.i.i, align 8
  %2 = load ptr, ptr %begin, align 8
  %cmp.i.i7 = icmp ne ptr %2, %0
  %3 = load i64, ptr %Position.i.i, align 8
  %cmp5.i.i8 = icmp ne i64 %3, %1
  %.not.i9 = select i1 %cmp.i.i7, i1 true, i1 %cmp5.i.i8
  br i1 %.not.i9, label %for.body.lr.ph, label %for.end

for.body.lr.ph:                                   ; preds = %entry
  %Component.i = getelementptr inbounds i8, ptr %begin, i64 16
  %LHSKind.i = getelementptr inbounds i8, ptr %ref.tmp, i64 16
  %RHSKind.i = getelementptr inbounds i8, ptr %ref.tmp, i64 17
  %LHSKind.i1 = getelementptr inbounds i8, ptr %ref.tmp2, i64 16
  %LHSKind.i3 = getelementptr inbounds i8, ptr %ref.tmp3, i64 16
  %LHSKind.i5 = getelementptr inbounds i8, ptr %ref.tmp4, i64 16
  br label %for.body

for.body:                                         ; preds = %for.body.lr.ph, %for.body
  store i8 5, ptr %LHSKind.i, align 8
  store i8 1, ptr %RHSKind.i, align 1
  store ptr %Component.i, ptr %ref.tmp, align 8
  store i16 257, ptr %LHSKind.i1, align 8
  store i16 257, ptr %LHSKind.i3, align 8
  store i16 257, ptr %LHSKind.i5, align 8
  call void @_ZN4llvh3sys4path6appendERNS_15SmallVectorImplIcEENS1_5StyleERKNS_5TwineES8_S8_S8_(ptr noundef nonnull align 8 dereferenceable(16) %path, i32 noundef %style, ptr noundef nonnull align 8 dereferenceable(18) %ref.tmp, ptr noundef nonnull align 8 dereferenceable(18) %ref.tmp2, ptr noundef nonnull align 8 dereferenceable(18) %ref.tmp3, ptr noundef nonnull align 8 dereferenceable(18) %ref.tmp4)
  %call5 = call noundef nonnull align 8 dereferenceable(44) ptr @_ZN4llvh3sys4path14const_iteratorppEv(ptr noundef nonnull align 8 dereferenceable(44) %begin)
  %4 = load ptr, ptr %begin, align 8
  %cmp.i.i = icmp ne ptr %4, %0
  %5 = load i64, ptr %Position.i.i, align 8
  %cmp5.i.i = icmp ne i64 %5, %1
  %.not.i = select i1 %cmp.i.i, i1 true, i1 %cmp5.i.i
  br i1 %.not.i, label %for.body, label %for.end, !llvm.loop !8

for.end:                                          ; preds = %for.body, %entry
  ret void
}